target datalayout = "e-m:e-p270:32:32-p271:32:32-p272:64:64-i64:64-i128:128-f80:128-n8:16:32:64-S128"
target triple = "x86_64-unknown-linux-gnu"

%struct.UResourceBundle = type { ptr, ptr, ptr, ptr, ptr, [64 x i8], i32, i32, i8, i8, i32, i32, i32, i32 }
%struct.UResourceDataEntry = type { ptr, ptr, ptr, ptr, ptr, %struct.ResourceData, [3 x i8], i32, i32 }
%struct.ResourceData = type { ptr, ptr, ptr, ptr, i32, i32, ptr, i32, i32, i8, i8, i8, i8 }

; Function Attrs: mustprogress nounwind uwtable
define internal void @_ZL21ures_setIsStackObjectP15UResourceBundlea(ptr noundef %resB, i8 noundef signext %state) #0 {
entry:
  %resB.addr = alloca ptr, align 8
  %state.addr = alloca i8, align 1
  store ptr %resB, ptr %resB.addr, align 8
  store i8 %state, ptr %state.addr, align 1
  %0 = load i8, ptr %state.addr, align 1
  %tobool = icmp ne i8 %0, 0
  br i1 %tobool, label %if.then, label %if.else

if.then:                                          ; preds = %entry
  %1 = load ptr, ptr %resB.addr, align 8
  %fMagic1 = getelementptr inbounds %struct.UResourceBundle, ptr %1, i32 0, i32 10
  store i32 0, ptr %fMagic1, align 4
  %2 = load ptr, ptr %resB.addr, align 8
  %fMagic2 = getelementptr inbounds %struct.UResourceBundle, ptr %2, i32 0, i32 11
  store i32 0, ptr %fMagic2, align 8
  br label %if.end

if.else:                                          ; preds = %entry
  %3 = load ptr, ptr %resB.addr, align 8
  %fMagic11 = getelementptr inbounds %struct.UResourceBundle, ptr %3, i32 0, i32 10
  store i32 19700503, ptr %fMagic11, align 4
  %4 = load ptr, ptr %resB.addr, align 8
  %fMagic22 = getelementptr inbounds %struct.UResourceBundle, ptr %4, i32 0, i32 11
  store i32 19641227, ptr %fMagic22, align 8
  br label %if.end

if.end:                                           ; preds = %if.else, %if.then
  ret void
}

; Function Attrs: mustprogress uwtable
define void @ures_close_75(ptr noundef %resB) #1 {
entry:
  %resB.addr = alloca ptr, align 8
  store ptr %resB, ptr %resB.addr, align 8
  %0 = load ptr, ptr %resB.addr, align 8
  call void @_ZL16ures_closeBundleP15UResourceBundlea(ptr noundef %0, i8 noundef signext 1)
  ret void
}

; Function Attrs: mustprogress nounwind uwtable
define linkonce_odr noundef nonnull align 8 dereferenceable(64) ptr @_ZNK15UResourceBundle10getResDataEv(ptr noundef nonnull align 8 dereferenceable(136) %this) #0 comdat align 2 {
entry:
  %this.addr = alloca ptr, align 8
  store ptr %this, ptr %this.addr, align 8
  %this1 = load ptr, ptr %this.addr, align 8
  %fData = getelementptr inbounds %struct.UResourceBundle, ptr %this1, i32 0, i32 1
  %0 = load ptr, ptr %fData, align 8
  %fData2 = getelementptr inbounds %struct.UResourceDataEntry, ptr %0, i32 0, i32 5
  ret ptr %fData2
}

; Function Attrs: mustprogress nounwind uwtable
define internal noundef signext i8 @_ZL9U_FAILURE10UErrorCode(i32 noundef %code) #0 {
entry:
  %code.addr = alloca i32, align 4
  store i32 %code, ptr %code.addr, align 4
  %0 = load i32, ptr %code.addr, align 4
  %cmp = icmp sgt i32 %0, 0
  %conv = zext i1 %cmp to i8
  ret i8 %conv
}

; Function Attrs: mustprogress uwtable
define void @ures_initStackObject_75(ptr noundef %resB) #1 {
entry:
  %resB.addr = alloca ptr, align 8
  store ptr %resB, ptr %resB.addr, align 8
  %0 = load ptr, ptr %resB.addr, align 8
  call void @llvm.memset.p0.i64(ptr align 8 %0, i8 0, i64 136, i1 false)
  %1 = load ptr, ptr %resB.addr, align 8
  call void @_ZL21ures_setIsStackObjectP15UResourceBundlea(ptr noundef %1, i8 noundef signext 1)
  ret void
}

; Function Attrs: mustprogress uwtable
define i32 @ures_countArrayItems_75(ptr noundef %resourceBundle, ptr noundef %resourceKey, ptr noundef %status) #1 {
entry:
  %retval = alloca i32, align 4
  %resourceBundle.addr = alloca ptr, align 8
  %resourceKey.addr = alloca ptr, align 8
  %status.addr = alloca ptr, align 8
  %resData = alloca %struct.UResourceBundle, align 8
  %result = alloca i32, align 4
  store ptr %resourceBundle, ptr %resourceBundle.addr, align 8
  store ptr %resourceKey, ptr %resourceKey.addr, align 8
  store ptr %status, ptr %status.addr, align 8
  call void @ures_initStackObject_75(ptr noundef %resData)
  %0 = load ptr, ptr %status.addr, align 8
  %cmp = icmp eq ptr %0, null
  br i1 %cmp, label %if.then, label %lor.lhs.false

lor.lhs.false:                                    ; preds = %entry
  %1 = load ptr, ptr %status.addr, align 8
  %2 = load i32, ptr %1, align 4
  %call = call noundef signext i8 @_ZL9U_FAILURE10UErrorCode(i32 noundef %2)
  %tobool = icmp ne i8 %call, 0
  br i1 %tobool, label %if.then, label %if.end

if.then:                                          ; preds = %lor.lhs.false, %entry
  store i32 0, ptr %retval, align 4
  br label %return

if.end:                                           ; preds = %lor.lhs.false
  %3 = load ptr, ptr %resourceBundle.addr, align 8
  %cmp1 = icmp eq ptr %3, null
  br i1 %cmp1, label %if.then2, label %if.end3

if.then2:                                         ; preds = %if.end
  %4 = load ptr, ptr %status.addr, align 8
  store i32 1, ptr %4, align 4
  store i32 0, ptr %retval, align 4
  br label %return

if.end3:                                          ; preds = %if.end
  %5 = load ptr, ptr %resourceBundle.addr, align 8
  %6 = load ptr, ptr %resourceKey.addr, align 8
  %7 = load ptr, ptr %status.addr, align 8
  %call4 = call ptr @ures_getByKey_75(ptr noundef %5, ptr noundef %6, ptr noundef %resData, ptr noundef %7)
  %call5 = call noundef nonnull align 8 dereferenceable(64) ptr @_ZNK15UResourceBundle10getResDataEv(ptr noundef nonnull align 8 dereferenceable(136) %resData)
  %data = getelementptr inbounds %struct.ResourceData, ptr %call5, i32 0, i32 0
  %8 = load ptr, ptr %data, align 8
  %cmp6 = icmp ne ptr %8, null
  br i1 %cmp6, label %if.then7, label %if.else

if.then7:                                         ; preds = %if.end3
  %call8 = call noundef nonnull align 8 dereferenceable(64) ptr @_ZNK15UResourceBundle10getResDataEv(ptr noundef nonnull align 8 dereferenceable(136) %resData)
  %fRes = getelementptr inbounds %struct.UResourceBundle, ptr %resData, i32 0, i32 7
  %9 = load i32, ptr %fRes, align 4
  %call9 = call i32 @res_countArrayItems_75(ptr noundef %call8, i32 noundef %9)
  store i32 %call9, ptr %result, align 4
  call void @ures_close_75(ptr noundef %resData)
  %10 = load i32, ptr %result, align 4
  store i32 %10, ptr %retval, align 4
  br label %return

if.else:                                          ; preds = %if.end3
  %11 = load ptr, ptr %status.addr, align 8
  store i32 2, ptr %11, align 4
  call void @ures_close_75(ptr noundef %resData)
  store i32 0, ptr %retval, align 4
  br label %return

return:                                           ; preds = %if.else, %if.then7, %if.then2, %if.then
  %12 = load i32, ptr %retval, align 4
  ret i32 %12
}