; Function Attrs: mustprogress uwtable
define i32 @ures_countArrayItems_75(ptr noundef %resourceBundle, ptr noundef %resourceKey, ptr noundef %status) local_unnamed_addr #1 {
entry:
  %resData = alloca %struct.UResourceBundle, align 8
  call void @llvm.memset.p0.i64(ptr noundef nonnull align 8 dereferenceable(136) %resData, i8 0, i64 136, i1 false)
  %cmp = icmp eq ptr %status, null
  br i1 %cmp, label %return, label %lor.lhs.false

lor.lhs.false:                                    ; preds = %entry
  %0 = load i32, ptr %status, align 4
  %cmp.i = icmp slt i32 %0, 1
  br i1 %cmp.i, label %if.end, label %return

if.end:                                           ; preds = %lor.lhs.false
  %cmp1 = icmp eq ptr %resourceBundle, null
  br i1 %cmp1, label %if.then2, label %if.end3

if.then2:                                         ; preds = %if.end
  store i32 1, ptr %status, align 4
  br label %return

if.end3:                                          ; preds = %if.end
  %call4 = call ptr @ures_getByKey_75(ptr noundef nonnull %resourceBundle, ptr noundef %resourceKey, ptr noundef nonnull %resData, ptr noundef nonnull %status)
  %fData.i = getelementptr inbounds i8, ptr %resData, i64 8
  %1 = load ptr, ptr %fData.i, align 8
  %fData2.i = getelementptr inbounds i8, ptr %1, i64 40
  %2 = load ptr, ptr %fData2.i, align 8
  %cmp6.not = icmp eq ptr %2, null
  br i1 %cmp6.not, label %if.else, label %if.then7

if.then7:                                         ; preds = %if.end3
  %fRes = getelementptr inbounds i8, ptr %resData, i64 108
  %3 = load i32, ptr %fRes, align 4
  %call9 = call i32 @res_countArrayItems_75(ptr noundef nonnull %fData2.i, i32 noundef %3)
  call fastcc void @_ZL16ures_closeBundleP15UResourceBundlea(ptr noundef nonnull %resData, i8 noundef signext 1)
  br label %return

if.else:                                          ; preds = %if.end3
  store i32 2, ptr %status, align 4
  call fastcc void @_ZL16ures_closeBundleP15UResourceBundlea(ptr noundef nonnull %resData, i8 noundef signext 1)
  br label %return

return:                                           ; preds = %entry, %lor.lhs.false, %if.else, %if.then7, %if.then2
  %retval.0 = phi i32 [ 0, %if.then2 ], [ %call9, %if.then7 ], [ 0, %if.else ], [ 0, %lor.lhs.false ], [ 0, %entry ]
  ret i32 %retval.0
}